; Function Attrs: mustprogress nofree norecurse nosync nounwind willreturn memory(argmem: readwrite) uwtable
define dso_local noundef nonnull align 8 dereferenceable(9) ptr @_ZN4Json18ValueConstIteratoraSERKNS_17ValueIteratorBaseE(ptr noundef nonnull returned writeonly align 8 dereferenceable(9) %0, ptr nocapture noundef nonnull readonly align 8 dereferenceable(9) %1) local_unnamed_addr #5 align 2 {
  %3 = load i64, ptr %1, align 8
  store i64 %3, ptr %0, align 8
  %4 = getelementptr inbounds i8, ptr %1, i64 8
  %5 = load i8, ptr %4, align 8
  %6 = and i8 %5, 1
  %7 = getelementptr inbounds i8, ptr %0, i64 8
  store i8 %6, ptr %7, align 8
  ret ptr %0
}